target datalayout = "e-m:e-p270:32:32-p271:32:32-p272:64:64-i64:64-i128:128-f80:128-n8:16:32:64-S128"
target triple = "x86_64-unknown-linux-gnu"

%"struct.url::SchemeWithType" = type { ptr, i32 }
%"struct.std::_Vector_base" = type { %"struct.std::_Vector_base<url::SchemeWithType, std::allocator<url::SchemeWithType>>::_Vector_impl" }
%"struct.std::_Vector_base<url::SchemeWithType, std::allocator<url::SchemeWithType>>::_Vector_impl" = type { %"struct.std::_Vector_base<url::SchemeWithType, std::allocator<url::SchemeWithType>>::_Vector_impl_data" }
%"struct.std::_Vector_base<url::SchemeWithType, std::allocator<url::SchemeWithType>>::_Vector_impl_data" = type { ptr, ptr, ptr }
%"class.__gnu_cxx::__normal_iterator.3" = type { ptr }
%"class.base::BasicStringPiece" = type { ptr, i64 }
%"struct.url::Component" = type { i32, i32 }

@_ZN3url12_GLOBAL__N_116referrer_schemesE = internal global ptr null, align 8
@_ZN3url12_GLOBAL__N_119kReferrerURLSchemesE = internal constant [2 x %"struct.url::SchemeWithType"] [%"struct.url::SchemeWithType" { ptr @_ZN3url11kHttpSchemeE, i32 0 }, %"struct.url::SchemeWithType" { ptr @_ZN3url12kHttpsSchemeE, i32 0 }], align 16

; Function Attrs: mustprogress nounwind uwtable
define linkonce_odr dso_local noundef nonnull align 8 dereferenceable(8) ptr @_ZNK9__gnu_cxx17__normal_iteratorIPKN3url14SchemeWithTypeESt6vectorIS2_SaIS2_EEE4baseEv(ptr noundef nonnull align 8 dereferenceable(8) %this) #1 comdat align 2 {
entry:
  %this.addr = alloca ptr, align 8
  store ptr %this, ptr %this.addr, align 8
  %this1 = load ptr, ptr %this.addr, align 8
  %_M_current = getelementptr inbounds %"class.__gnu_cxx::__normal_iterator.3", ptr %this1, i32 0, i32 0
  ret ptr %_M_current
}

; Function Attrs: mustprogress nounwind uwtable
define linkonce_odr dso_local void @_ZN9__gnu_cxx17__normal_iteratorIPKN3url14SchemeWithTypeESt6vectorIS2_SaIS2_EEEC2ERKS4_(ptr noundef nonnull align 8 dereferenceable(8) %this, ptr noundef nonnull align 8 dereferenceable(8) %__i) unnamed_addr #1 comdat align 2 {
entry:
  %this.addr = alloca ptr, align 8
  %__i.addr = alloca ptr, align 8
  store ptr %this, ptr %this.addr, align 8
  store ptr %__i, ptr %__i.addr, align 8
  %this1 = load ptr, ptr %this.addr, align 8
  %_M_current = getelementptr inbounds %"class.__gnu_cxx::__normal_iterator.3", ptr %this1, i32 0, i32 0
  %0 = load ptr, ptr %__i.addr, align 8
  %1 = load ptr, ptr %0, align 8
  store ptr %1, ptr %_M_current, align 8
  ret void
}

; Function Attrs: mustprogress nounwind uwtable
define linkonce_odr dso_local noundef nonnull align 8 dereferenceable(8) ptr @_ZN9__gnu_cxx17__normal_iteratorIPKN3url14SchemeWithTypeESt6vectorIS2_SaIS2_EEEppEv(ptr noundef nonnull align 8 dereferenceable(8) %this) #1 comdat align 2 {
entry:
  %this.addr = alloca ptr, align 8
  store ptr %this, ptr %this.addr, align 8
  %this1 = load ptr, ptr %this.addr, align 8
  %_M_current = getelementptr inbounds %"class.__gnu_cxx::__normal_iterator.3", ptr %this1, i32 0, i32 0
  %0 = load ptr, ptr %_M_current, align 8
  %incdec.ptr = getelementptr inbounds %"struct.url::SchemeWithType", ptr %0, i32 1
  store ptr %incdec.ptr, ptr %_M_current, align 8
  ret ptr %this1
}

; Function Attrs: mustprogress nounwind uwtable
define linkonce_odr dso_local noundef nonnull align 8 dereferenceable(16) ptr @_ZNK9__gnu_cxx17__normal_iteratorIPKN3url14SchemeWithTypeESt6vectorIS2_SaIS2_EEEdeEv(ptr noundef nonnull align 8 dereferenceable(8) %this) #1 comdat align 2 {
entry:
  %this.addr = alloca ptr, align 8
  store ptr %this, ptr %this.addr, align 8
  %this1 = load ptr, ptr %this.addr, align 8
  %_M_current = getelementptr inbounds %"class.__gnu_cxx::__normal_iterator.3", ptr %this1, i32 0, i32 0
  %0 = load ptr, ptr %_M_current, align 8
  ret ptr %0
}

; Function Attrs: mustprogress nounwind uwtable
define linkonce_odr dso_local noundef zeroext i1 @_ZN9__gnu_cxxneIPKN3url14SchemeWithTypeESt6vectorIS2_SaIS2_EEEEbRKNS_17__normal_iteratorIT_T0_EESD_(ptr noundef nonnull align 8 dereferenceable(8) %__lhs, ptr noundef nonnull align 8 dereferenceable(8) %__rhs) #1 comdat {
entry:
  %__lhs.addr = alloca ptr, align 8
  %__rhs.addr = alloca ptr, align 8
  store ptr %__lhs, ptr %__lhs.addr, align 8
  store ptr %__rhs, ptr %__rhs.addr, align 8
  %0 = load ptr, ptr %__lhs.addr, align 8
  %call = call noundef nonnull align 8 dereferenceable(8) ptr @_ZNK9__gnu_cxx17__normal_iteratorIPKN3url14SchemeWithTypeESt6vectorIS2_SaIS2_EEE4baseEv(ptr noundef nonnull align 8 dereferenceable(8) %0) #13
  %1 = load ptr, ptr %call, align 8
  %2 = load ptr, ptr %__rhs.addr, align 8
  %call1 = call noundef nonnull align 8 dereferenceable(8) ptr @_ZNK9__gnu_cxx17__normal_iteratorIPKN3url14SchemeWithTypeESt6vectorIS2_SaIS2_EEE4baseEv(ptr noundef nonnull align 8 dereferenceable(8) %2) #13
  %3 = load ptr, ptr %call1, align 8
  %cmp = icmp ne ptr %1, %3
  ret i1 %cmp
}

; Function Attrs: mustprogress nounwind uwtable
define linkonce_odr dso_local ptr @_ZNKSt6vectorIN3url14SchemeWithTypeESaIS1_EE3endEv(ptr noundef nonnull align 8 dereferenceable(24) %this) #1 comdat align 2 {
entry:
  %retval = alloca %"class.__gnu_cxx::__normal_iterator.3", align 8
  %this.addr = alloca ptr, align 8
  store ptr %this, ptr %this.addr, align 8
  %this1 = load ptr, ptr %this.addr, align 8
  %_M_impl = getelementptr inbounds %"struct.std::_Vector_base", ptr %this1, i32 0, i32 0
  %_M_finish = getelementptr inbounds %"struct.std::_Vector_base<url::SchemeWithType, std::allocator<url::SchemeWithType>>::_Vector_impl_data", ptr %_M_impl, i32 0, i32 1
  call void @_ZN9__gnu_cxx17__normal_iteratorIPKN3url14SchemeWithTypeESt6vectorIS2_SaIS2_EEEC2ERKS4_(ptr noundef nonnull align 8 dereferenceable(8) %retval, ptr noundef nonnull align 8 dereferenceable(8) %_M_finish) #13
  %coerce.dive = getelementptr inbounds %"class.__gnu_cxx::__normal_iterator.3", ptr %retval, i32 0, i32 0
  %0 = load ptr, ptr %coerce.dive, align 8
  ret ptr %0
}

; Function Attrs: mustprogress nounwind uwtable
define linkonce_odr dso_local ptr @_ZNKSt6vectorIN3url14SchemeWithTypeESaIS1_EE5beginEv(ptr noundef nonnull align 8 dereferenceable(24) %this) #1 comdat align 2 {
entry:
  %retval = alloca %"class.__gnu_cxx::__normal_iterator.3", align 8
  %this.addr = alloca ptr, align 8
  store ptr %this, ptr %this.addr, align 8
  %this1 = load ptr, ptr %this.addr, align 8
  %_M_impl = getelementptr inbounds %"struct.std::_Vector_base", ptr %this1, i32 0, i32 0
  %_M_start = getelementptr inbounds %"struct.std::_Vector_base<url::SchemeWithType, std::allocator<url::SchemeWithType>>::_Vector_impl_data", ptr %_M_impl, i32 0, i32 0
  call void @_ZN9__gnu_cxx17__normal_iteratorIPKN3url14SchemeWithTypeESt6vectorIS2_SaIS2_EEEC2ERKS4_(ptr noundef nonnull align 8 dereferenceable(8) %retval, ptr noundef nonnull align 8 dereferenceable(8) %_M_start) #13
  %coerce.dive = getelementptr inbounds %"class.__gnu_cxx::__normal_iterator.3", ptr %retval, i32 0, i32 0
  %0 = load ptr, ptr %coerce.dive, align 8
  ret ptr %0
}

; Function Attrs: mustprogress nounwind uwtable
define linkonce_odr dso_local noundef zeroext i1 @_ZNK3url9Component11is_nonemptyEv(ptr noundef nonnull align 4 dereferenceable(8) %this) #1 comdat align 2 {
entry:
  %this.addr = alloca ptr, align 8
  store ptr %this, ptr %this.addr, align 8
  %this1 = load ptr, ptr %this.addr, align 8
  %len = getelementptr inbounds %"struct.url::Component", ptr %this1, i32 0, i32 1
  %0 = load i32, ptr %len, align 4
  %cmp = icmp sgt i32 %0, 0
  ret i1 %cmp
}

; Function Attrs: mustprogress uwtable
define internal noundef zeroext i1 @_ZN3url12_GLOBAL__N_113DoIsInSchemesIcEEbPKT_RKNS_9ComponentEPNS_10SchemeTypeERKSt6vectorINS_14SchemeWithTypeESaISB_EE(ptr noundef %spec, ptr noundef nonnull align 4 dereferenceable(8) %scheme, ptr noundef %type, ptr noundef nonnull align 8 dereferenceable(24) %schemes) #0 {
entry:
  %retval = alloca i1, align 1
  %spec.addr = alloca ptr, align 8
  %scheme.addr = alloca ptr, align 8
  %type.addr = alloca ptr, align 8
  %schemes.addr = alloca ptr, align 8
  %__range2 = alloca ptr, align 8
  %__begin2 = alloca %"class.__gnu_cxx::__normal_iterator.3", align 8
  %__end2 = alloca %"class.__gnu_cxx::__normal_iterator.3", align 8
  %scheme_with_type = alloca ptr, align 8
  %agg.tmp = alloca %"class.base::BasicStringPiece", align 8
  %agg.tmp6 = alloca %"class.base::BasicStringPiece", align 8
  store ptr %spec, ptr %spec.addr, align 8
  store ptr %scheme, ptr %scheme.addr, align 8
  store ptr %type, ptr %type.addr, align 8
  store ptr %schemes, ptr %schemes.addr, align 8
  %0 = load ptr, ptr %scheme.addr, align 8
  %call = call noundef zeroext i1 @_ZNK3url9Component11is_nonemptyEv(ptr noundef nonnull align 4 dereferenceable(8) %0)
  br i1 %call, label %if.end, label %if.then

if.then:                                          ; preds = %entry
  store i1 false, ptr %retval, align 1
  br label %return

if.end:                                           ; preds = %entry
  %1 = load ptr, ptr %schemes.addr, align 8
  store ptr %1, ptr %__range2, align 8
  %2 = load ptr, ptr %__range2, align 8
  %call1 = call ptr @_ZNKSt6vectorIN3url14SchemeWithTypeESaIS1_EE5beginEv(ptr noundef nonnull align 8 dereferenceable(24) %2) #13
  %coerce.dive = getelementptr inbounds %"class.__gnu_cxx::__normal_iterator.3", ptr %__begin2, i32 0, i32 0
  store ptr %call1, ptr %coerce.dive, align 8
  %3 = load ptr, ptr %__range2, align 8
  %call2 = call ptr @_ZNKSt6vectorIN3url14SchemeWithTypeESaIS1_EE3endEv(ptr noundef nonnull align 8 dereferenceable(24) %3) #13
  %coerce.dive3 = getelementptr inbounds %"class.__gnu_cxx::__normal_iterator.3", ptr %__end2, i32 0, i32 0
  store ptr %call2, ptr %coerce.dive3, align 8
  br label %for.cond

for.cond:                                         ; preds = %for.inc, %if.end
  %call4 = call noundef zeroext i1 @_ZN9__gnu_cxxneIPKN3url14SchemeWithTypeESt6vectorIS2_SaIS2_EEEEbRKNS_17__normal_iteratorIT_T0_EESD_(ptr noundef nonnull align 8 dereferenceable(8) %__begin2, ptr noundef nonnull align 8 dereferenceable(8) %__end2) #13
  br i1 %call4, label %for.body, label %for.end

for.body:                                         ; preds = %for.cond
  %call5 = call noundef nonnull align 8 dereferenceable(16) ptr @_ZNK9__gnu_cxx17__normal_iteratorIPKN3url14SchemeWithTypeESt6vectorIS2_SaIS2_EEEdeEv(ptr noundef nonnull align 8 dereferenceable(8) %__begin2) #13
  store ptr %call5, ptr %scheme_with_type, align 8
  %4 = load ptr, ptr %spec.addr, align 8
  %5 = load ptr, ptr %scheme.addr, align 8
  %begin = getelementptr inbounds %"struct.url::Component", ptr %5, i32 0, i32 0
  %6 = load i32, ptr %begin, align 4
  %idxprom = sext i32 %6 to i64
  %arrayidx = getelementptr inbounds i8, ptr %4, i64 %idxprom
  %7 = load ptr, ptr %scheme.addr, align 8
  %len = getelementptr inbounds %"struct.url::Component", ptr %7, i32 0, i32 1
  %8 = load i32, ptr %len, align 4
  %conv = sext i32 %8 to i64
  call void @_ZN4base16BasicStringPieceINSt7__cxx1112basic_stringIcSt11char_traitsIcESaIcEEEEC1EPKcm(ptr noundef nonnull align 8 dereferenceable(16) %agg.tmp, ptr noundef %arrayidx, i64 noundef %conv)
  %9 = load ptr, ptr %scheme_with_type, align 8
  %scheme7 = getelementptr inbounds %"struct.url::SchemeWithType", ptr %9, i32 0, i32 0
  %10 = load ptr, ptr %scheme7, align 8
  call void @_ZN4base16BasicStringPieceINSt7__cxx1112basic_stringIcSt11char_traitsIcESaIcEEEEC1EPKc(ptr noundef nonnull align 8 dereferenceable(16) %agg.tmp6, ptr noundef %10)
  %11 = getelementptr inbounds { ptr, i64 }, ptr %agg.tmp, i32 0, i32 0
  %12 = load ptr, ptr %11, align 8
  %13 = getelementptr inbounds { ptr, i64 }, ptr %agg.tmp, i32 0, i32 1
  %14 = load i64, ptr %13, align 8
  %15 = getelementptr inbounds { ptr, i64 }, ptr %agg.tmp6, i32 0, i32 0
  %16 = load ptr, ptr %15, align 8
  %17 = getelementptr inbounds { ptr, i64 }, ptr %agg.tmp6, i32 0, i32 1
  %18 = load i64, ptr %17, align 8
  %call8 = call noundef zeroext i1 @_ZN4base20LowerCaseEqualsASCIIENS_16BasicStringPieceINSt7__cxx1112basic_stringIcSt11char_traitsIcESaIcEEEEES7_(ptr %12, i64 %14, ptr %16, i64 %18)
  br i1 %call8, label %if.then9, label %if.end11

if.then9:                                         ; preds = %for.body
  %19 = load ptr, ptr %scheme_with_type, align 8
  %type10 = getelementptr inbounds %"struct.url::SchemeWithType", ptr %19, i32 0, i32 1
  %20 = load i32, ptr %type10, align 8
  %21 = load ptr, ptr %type.addr, align 8
  store i32 %20, ptr %21, align 4
  store i1 true, ptr %retval, align 1
  br label %return

if.end11:                                         ; preds = %for.body
  br label %for.inc

for.inc:                                          ; preds = %if.end11
  %call12 = call noundef nonnull align 8 dereferenceable(8) ptr @_ZN9__gnu_cxx17__normal_iteratorIPKN3url14SchemeWithTypeESt6vectorIS2_SaIS2_EEEppEv(ptr noundef nonnull align 8 dereferenceable(8) %__begin2) #13
  br label %for.cond

for.end:                                          ; preds = %for.cond
  store i1 false, ptr %retval, align 1
  br label %return

return:                                           ; preds = %for.end, %if.then9, %if.then
  %22 = load i1, ptr %retval, align 1
  ret i1 %22
}

; Function Attrs: mustprogress uwtable
define internal void @_ZN3url12_GLOBAL__N_119InitReferrerSchemesEv() #0 {
entry:
  call void @_ZN3url12_GLOBAL__N_111InitSchemesEPPSt6vectorINS_14SchemeWithTypeESaIS2_EEPKS2_m(ptr noundef @_ZN3url12_GLOBAL__N_116referrer_schemesE, ptr noundef @_ZN3url12_GLOBAL__N_119kReferrerURLSchemesE, i64 noundef 2)
  ret void
}

; Function Attrs: mustprogress uwtable
define dso_local noundef zeroext i1 @_ZN3url16IsReferrerSchemeEPKcRKNS_9ComponentE(ptr noundef %spec, ptr noundef nonnull align 4 dereferenceable(8) %scheme) #0 {
entry:
  %spec.addr = alloca ptr, align 8
  %scheme.addr = alloca ptr, align 8
  %unused_scheme_type = alloca i32, align 4
  store ptr %spec, ptr %spec.addr, align 8
  store ptr %scheme, ptr %scheme.addr, align 8
  call void @_ZN3url12_GLOBAL__N_119InitReferrerSchemesEv()
  %0 = load ptr, ptr %spec.addr, align 8
  %1 = load ptr, ptr %scheme.addr, align 8
  %2 = load ptr, ptr @_ZN3url12_GLOBAL__N_116referrer_schemesE, align 8
  %call = call noundef zeroext i1 @_ZN3url12_GLOBAL__N_113DoIsInSchemesIcEEbPKT_RKNS_9ComponentEPNS_10SchemeTypeERKSt6vectorINS_14SchemeWithTypeESaISB_EE(ptr noundef %0, ptr noundef nonnull align 4 dereferenceable(8) %1, ptr noundef %unused_scheme_type, ptr noundef nonnull align 8 dereferenceable(24) %2)
  ret i1 %call
}