; Function Attrs: mustprogress uwtable
define dso_local noundef zeroext i1 @_ZN3url16IsReferrerSchemeEPKcRKNS_9ComponentE(ptr noundef %spec, ptr nocapture noundef nonnull readonly align 4 dereferenceable(8) %scheme) local_unnamed_addr #0 {
entry:
  %agg.tmp.i = alloca %"class.base::BasicStringPiece", align 8
  %agg.tmp6.i = alloca %"class.base::BasicStringPiece", align 8
  tail call fastcc void @_ZN3url12_GLOBAL__N_111InitSchemesEPPSt6vectorINS_14SchemeWithTypeESaIS2_EEPKS2_m(ptr noundef nonnull @_ZN3url12_GLOBAL__N_116referrer_schemesE, ptr noundef nonnull @_ZN3url12_GLOBAL__N_119kReferrerURLSchemesE, i64 noundef 2)
  %0 = load ptr, ptr @_ZN3url12_GLOBAL__N_116referrer_schemesE, align 8
  %.val = load ptr, ptr %0, align 8
  %1 = getelementptr i8, ptr %0, i64 8
  %.val1 = load ptr, ptr %1, align 8
  call void @llvm.lifetime.start.p0(i64 16, ptr nonnull %agg.tmp.i)
  call void @llvm.lifetime.start.p0(i64 16, ptr nonnull %agg.tmp6.i)
  %len.i.i = getelementptr inbounds i8, ptr %scheme, i64 4
  %2 = load i32, ptr %len.i.i, align 4
  %cmp.i.i = icmp slt i32 %2, 1
  %cmp.i5.not4.i = icmp eq ptr %.val, %.val1
  %or.cond.i = select i1 %cmp.i.i, i1 true, i1 %cmp.i5.not4.i
  br i1 %or.cond.i, label %_ZN3url12_GLOBAL__N_113DoIsInSchemesIcEEbPKT_RKNS_9ComponentEPNS_10SchemeTypeERKSt6vectorINS_14SchemeWithTypeESaISB_EE.exit, label %for.body.lr.ph.i

for.body.lr.ph.i:                                 ; preds = %entry
  %3 = getelementptr inbounds i8, ptr %agg.tmp.i, i64 8
  %4 = getelementptr inbounds i8, ptr %agg.tmp6.i, i64 8
  br label %for.body.i

for.body.i:                                       ; preds = %for.body.i, %for.body.lr.ph.i
  %__begin2.sroa.0.05.i = phi ptr [ %.val, %for.body.lr.ph.i ], [ %incdec.ptr.i.i, %for.body.i ]
  %5 = load i32, ptr %scheme, align 4
  %idxprom.i = sext i32 %5 to i64
  %arrayidx.i = getelementptr inbounds i8, ptr %spec, i64 %idxprom.i
  %6 = load i32, ptr %len.i.i, align 4
  %conv.i = sext i32 %6 to i64
  call void @_ZN4base16BasicStringPieceINSt7__cxx1112basic_stringIcSt11char_traitsIcESaIcEEEEC1EPKcm(ptr noundef nonnull align 8 dereferenceable(16) %agg.tmp.i, ptr noundef %arrayidx.i, i64 noundef %conv.i)
  %7 = load ptr, ptr %__begin2.sroa.0.05.i, align 8
  call void @_ZN4base16BasicStringPieceINSt7__cxx1112basic_stringIcSt11char_traitsIcESaIcEEEEC1EPKc(ptr noundef nonnull align 8 dereferenceable(16) %agg.tmp6.i, ptr noundef %7)
  %8 = load ptr, ptr %agg.tmp.i, align 8
  %9 = load i64, ptr %3, align 8
  %10 = load ptr, ptr %agg.tmp6.i, align 8
  %11 = load i64, ptr %4, align 8
  %call8.i = call noundef zeroext i1 @_ZN4base20LowerCaseEqualsASCIIENS_16BasicStringPieceINSt7__cxx1112basic_stringIcSt11char_traitsIcESaIcEEEEES7_(ptr %8, i64 %9, ptr %10, i64 %11)
  %incdec.ptr.i.i = getelementptr inbounds i8, ptr %__begin2.sroa.0.05.i, i64 16
  %cmp.i5.not.i = icmp eq ptr %incdec.ptr.i.i, %.val1
  %or.cond = select i1 %call8.i, i1 true, i1 %cmp.i5.not.i
  br i1 %or.cond, label %_ZN3url12_GLOBAL__N_113DoIsInSchemesIcEEbPKT_RKNS_9ComponentEPNS_10SchemeTypeERKSt6vectorINS_14SchemeWithTypeESaISB_EE.exit, label %for.body.i

_ZN3url12_GLOBAL__N_113DoIsInSchemesIcEEbPKT_RKNS_9ComponentEPNS_10SchemeTypeERKSt6vectorINS_14SchemeWithTypeESaISB_EE.exit: ; preds = %for.body.i, %entry
  %retval.0.i = phi i1 [ false, %entry ], [ %call8.i, %for.body.i ]
  call void @llvm.lifetime.end.p0(i64 16, ptr nonnull %agg.tmp.i)
  call void @llvm.lifetime.end.p0(i64 16, ptr nonnull %agg.tmp6.i)
  ret i1 %retval.0.i
}